target datalayout = "e-m:e-p270:32:32-p271:32:32-p272:64:64-i64:64-i128:128-f80:128-n8:16:32:64-S128"
target triple = "x86_64-pc-linux-gnu"

%struct.quic_port_st = type { ptr, %struct.anon, ptr, ptr, ptr, ptr, ptr, ptr, %struct.ossl_list_st_ch, %struct.ossl_list_st_incoming_ch, ptr, ptr, ptr, ptr, i8, i8, i16, ptr }
%struct.anon = type { ptr, ptr }
%struct.ossl_list_st_ch = type { ptr, ptr, i64 }
%struct.ossl_list_st_incoming_ch = type { ptr, ptr, i64 }

; Function Attrs: nounwind uwtable
define ptr @ossl_quic_port_create_incoming(ptr noundef %0, ptr noundef %1) #0 {
  %3 = alloca ptr, align 8
  %4 = alloca ptr, align 8
  %5 = alloca ptr, align 8
  store ptr %0, ptr %3, align 8, !tbaa !8
  store ptr %1, ptr %4, align 8, !tbaa !103
  call void @llvm.lifetime.start.p0(i64 8, ptr %5) #8
  %6 = load ptr, ptr %3, align 8, !tbaa !8
  %7 = load ptr, ptr %4, align 8, !tbaa !103
  %8 = call ptr @port_make_channel(ptr noundef %6, ptr noundef %7, i32 noundef 1)
  store ptr %8, ptr %5, align 8, !tbaa !67
  %9 = load ptr, ptr %5, align 8, !tbaa !67
  %10 = load ptr, ptr %3, align 8, !tbaa !8
  %11 = getelementptr inbounds nuw %struct.quic_port_st, ptr %10, i32 0, i32 10
  store ptr %9, ptr %11, align 8, !tbaa !145
  %12 = load ptr, ptr %3, align 8, !tbaa !8
  %13 = getelementptr inbounds nuw %struct.quic_port_st, ptr %12, i32 0, i32 16
  %14 = load i16, ptr %13, align 2
  %15 = and i16 %14, -17
  %16 = or i16 %15, 16
  store i16 %16, ptr %13, align 2
  %17 = load ptr, ptr %5, align 8, !tbaa !67
  call void @llvm.lifetime.end.p0(i64 8, ptr %5) #8
  ret ptr %17
}