; Function Attrs: nounwind uwtable
define ptr @ossl_quic_port_create_incoming(ptr noundef %0, ptr noundef %1) local_unnamed_addr #0 {
  %3 = tail call fastcc ptr @port_make_channel(ptr noundef %0, ptr noundef %1, i32 noundef 1)
  %4 = getelementptr inbounds nuw i8, ptr %0, i64 120
  store ptr %3, ptr %4, align 8, !tbaa !185
  %5 = getelementptr inbounds nuw i8, ptr %0, i64 154
  %6 = load i16, ptr %5, align 2
  %7 = or i16 %6, 16
  store i16 %7, ptr %5, align 2
  ret ptr %3
}